target datalayout = "e-m:e-p270:32:32-p271:32:32-p272:64:64-i64:64-i128:128-f80:128-n8:16:32:64-S128"
target triple = "x86_64-pc-linux-gnu"

%struct.expert_field = type { i32, i32 }

@hf_pn_io_line_delay = internal global i32 0, align 4
@hf_pn_io_line_delay_value = internal global i32 0, align 4
@hf_pn_io_cable_delay_value = internal global i32 0, align 4
@hf_pn_io_line_delay_format_indicator = internal global i32 0, align 4
@ett_pn_io_line_delay = internal global i32 0, align 4
@ei_pn_io_block_version = internal global %struct.expert_field zeroinitializer, align 4
@.str.1317 = private unnamed_addr constant [41 x i8] c"Block version %u.%u not implemented yet!\00", align 1
@.str.1561 = private unnamed_addr constant [17 x i8] c": LineDelay:%uns\00", align 1

; Function Attrs: nounwind uwtable
define internal i32 @dissect_Line_Delay(ptr noundef %0, i32 noundef %1, ptr noundef %2, ptr noundef %3, ptr noundef %4, ptr noundef %5) #0 {
  %7 = alloca ptr, align 8
  %8 = alloca i32, align 4
  %9 = alloca ptr, align 8
  %10 = alloca ptr, align 8
  %11 = alloca ptr, align 8
  %12 = alloca ptr, align 8
  %13 = alloca ptr, align 8
  %14 = alloca ptr, align 8
  %15 = alloca i32, align 4
  %16 = alloca i8, align 1
  store ptr %0, ptr %7, align 8
  store i32 %1, ptr %8, align 4
  store ptr %2, ptr %9, align 8
  store ptr %3, ptr %10, align 8
  store ptr %4, ptr %11, align 8
  store ptr %5, ptr %12, align 8
  %17 = load ptr, ptr %10, align 8
  %18 = load i32, ptr @hf_pn_io_line_delay, align 4
  %19 = load ptr, ptr %7, align 8
  %20 = load i32, ptr %8, align 4
  %21 = call ptr @proto_tree_add_item(ptr noundef %17, i32 noundef %18, ptr noundef %19, i32 noundef %20, i32 noundef 4, i32 noundef 0)
  store ptr %21, ptr %13, align 8
  %22 = load ptr, ptr %13, align 8
  %23 = load i32, ptr @ett_pn_io_line_delay, align 4
  %24 = call ptr @proto_item_add_subtree(ptr noundef %22, i32 noundef %23)
  store ptr %24, ptr %14, align 8
  %25 = load ptr, ptr %7, align 8
  %26 = load i32, ptr %8, align 4
  %27 = load ptr, ptr %9, align 8
  %28 = load ptr, ptr %14, align 8
  %29 = load ptr, ptr %11, align 8
  %30 = load i32, ptr @hf_pn_io_line_delay_format_indicator, align 4
  %31 = call i32 @dissect_dcerpc_uint32(ptr noundef %25, i32 noundef %26, ptr noundef %27, ptr noundef %28, ptr noundef %29, i32 noundef %30, ptr noundef %15)
  %32 = load i32, ptr %15, align 4
  %33 = lshr i32 %32, 31
  %34 = and i32 %33, 1
  %35 = trunc i32 %34 to i8
  store i8 %35, ptr %16, align 1
  %36 = load i8, ptr %16, align 1
  %37 = icmp ne i8 %36, 0
  br i1 %37, label %38, label %47

38:                                               ; preds = %6
  %39 = load ptr, ptr %7, align 8
  %40 = load i32, ptr %8, align 4
  %41 = load ptr, ptr %9, align 8
  %42 = load ptr, ptr %14, align 8
  %43 = load ptr, ptr %11, align 8
  %44 = load i32, ptr @hf_pn_io_cable_delay_value, align 4
  %45 = load ptr, ptr %12, align 8
  %46 = call i32 @dissect_dcerpc_uint32(ptr noundef %39, i32 noundef %40, ptr noundef %41, ptr noundef %42, ptr noundef %43, i32 noundef %44, ptr noundef %45)
  store i32 %46, ptr %8, align 4
  br label %56

47:                                               ; preds = %6
  %48 = load ptr, ptr %7, align 8
  %49 = load i32, ptr %8, align 4
  %50 = load ptr, ptr %9, align 8
  %51 = load ptr, ptr %14, align 8
  %52 = load ptr, ptr %11, align 8
  %53 = load i32, ptr @hf_pn_io_line_delay_value, align 4
  %54 = load ptr, ptr %12, align 8
  %55 = call i32 @dissect_dcerpc_uint32(ptr noundef %48, i32 noundef %49, ptr noundef %50, ptr noundef %51, ptr noundef %52, i32 noundef %53, ptr noundef %54)
  store i32 %55, ptr %8, align 4
  br label %56

56:                                               ; preds = %47, %38
  %57 = load i32, ptr %8, align 4
  ret i32 %57
}

; Function Attrs: nounwind uwtable
define internal i32 @dissect_CheckLineDelay_block(ptr noundef %0, i32 noundef %1, ptr noundef %2, ptr noundef %3, ptr noundef %4, ptr noundef %5, i8 noundef zeroext %6, i8 noundef zeroext %7) #0 {
  %9 = alloca i32, align 4
  %10 = alloca ptr, align 8
  %11 = alloca i32, align 4
  %12 = alloca ptr, align 8
  %13 = alloca ptr, align 8
  %14 = alloca ptr, align 8
  %15 = alloca ptr, align 8
  %16 = alloca i8, align 1
  %17 = alloca i8, align 1
  %18 = alloca i32, align 4
  store ptr %0, ptr %10, align 8
  store i32 %1, ptr %11, align 4
  store ptr %2, ptr %12, align 8
  store ptr %3, ptr %13, align 8
  store ptr %4, ptr %14, align 8
  store ptr %5, ptr %15, align 8
  store i8 %6, ptr %16, align 1
  store i8 %7, ptr %17, align 1
  %19 = load i8, ptr %16, align 1
  %20 = zext i8 %19 to i32
  %21 = icmp ne i32 %20, 1
  br i1 %21, label %26, label %22

22:                                               ; preds = %8
  %23 = load i8, ptr %17, align 1
  %24 = zext i8 %23 to i32
  %25 = icmp ne i32 %24, 0
  br i1 %25, label %26, label %35

26:                                               ; preds = %22, %8
  %27 = load ptr, ptr %12, align 8
  %28 = load ptr, ptr %14, align 8
  %29 = load i8, ptr %16, align 1
  %30 = zext i8 %29 to i32
  %31 = load i8, ptr %17, align 1
  %32 = zext i8 %31 to i32
  %33 = call ptr (ptr, ptr, ptr, ptr, ...) @expert_add_info_format(ptr noundef %27, ptr noundef %28, ptr noundef @ei_pn_io_block_version, ptr noundef @.str.1317, i32 noundef %30, i32 noundef %32)
  %34 = load i32, ptr %11, align 4
  store i32 %34, ptr %9, align 4
  br label %50

35:                                               ; preds = %22
  %36 = load ptr, ptr %10, align 8
  %37 = load i32, ptr %11, align 4
  %38 = load ptr, ptr %12, align 8
  %39 = load ptr, ptr %13, align 8
  %40 = call i32 @dissect_pn_align4(ptr noundef %36, i32 noundef %37, ptr noundef %38, ptr noundef %39)
  store i32 %40, ptr %11, align 4
  %41 = load ptr, ptr %10, align 8
  %42 = load i32, ptr %11, align 4
  %43 = load ptr, ptr %12, align 8
  %44 = load ptr, ptr %13, align 8
  %45 = load ptr, ptr %15, align 8
  %46 = call i32 @dissect_Line_Delay(ptr noundef %41, i32 noundef %42, ptr noundef %43, ptr noundef %44, ptr noundef %45, ptr noundef %18)
  store i32 %46, ptr %11, align 4
  %47 = load ptr, ptr %14, align 8
  %48 = load i32, ptr %18, align 4
  call void (ptr, ptr, ...) @proto_item_append_text(ptr noundef %47, ptr noundef @.str.1561, i32 noundef %48)
  %49 = load i32, ptr %11, align 4
  store i32 %49, ptr %9, align 4
  br label %50

50:                                               ; preds = %35, %26
  %51 = load i32, ptr %9, align 4
  ret i32 %51
}