; Function Attrs: nounwind uwtable
define internal fastcc void @dissect_CheckLineDelay_block(ptr noundef %0, i32 noundef %1, ptr noundef %2, ptr noundef %3, ptr noundef %4, ptr noundef %5, i8 noundef zeroext %6, i8 noundef zeroext %7) unnamed_addr #0 {
  %9 = alloca i32, align 4
  %10 = alloca i32, align 4
  %11 = icmp ne i8 %6, 1
  %12 = icmp ne i8 %7, 0
  %or.cond = or i1 %11, %12
  br i1 %or.cond, label %13, label %17

13:                                               ; preds = %8
  %14 = zext i8 %7 to i32
  %15 = zext i8 %6 to i32
  %16 = tail call ptr (ptr, ptr, ptr, ptr, ...) @expert_add_info_format(ptr noundef %2, ptr noundef %4, ptr noundef nonnull @ei_pn_io_block_version, ptr noundef nonnull @.str.1317, i32 noundef %15, i32 noundef %14) #11
  br label %29

17:                                               ; preds = %8
  %18 = tail call i32 @dissect_pn_align4(ptr noundef %0, i32 noundef %1, ptr noundef %2, ptr noundef %3) #11
  call void @llvm.lifetime.start.p0(i64 4, ptr nonnull %9)
  %19 = load i32, ptr @hf_pn_io_line_delay, align 4
  %20 = tail call ptr @proto_tree_add_item(ptr noundef %3, i32 noundef %19, ptr noundef %0, i32 noundef %18, i32 noundef 4, i32 noundef 0) #11
  %21 = load i32, ptr @ett_pn_io_line_delay, align 4
  %22 = tail call ptr @proto_item_add_subtree(ptr noundef %20, i32 noundef %21) #11
  %23 = load i32, ptr @hf_pn_io_line_delay_format_indicator, align 4
  %24 = call i32 @dissect_dcerpc_uint32(ptr noundef %0, i32 noundef %18, ptr noundef %2, ptr noundef %22, ptr noundef %5, i32 noundef %23, ptr noundef nonnull %9) #11
  %25 = load i32, ptr %9, align 4
  %hf_pn_io_line_delay_value.val.i = load i32, ptr @hf_pn_io_line_delay_value, align 4
  %hf_pn_io_cable_delay_value.val.i = load i32, ptr @hf_pn_io_cable_delay_value, align 4
  %.not22.i = icmp slt i32 %25, 0
  %26 = select i1 %.not22.i, i32 %hf_pn_io_cable_delay_value.val.i, i32 %hf_pn_io_line_delay_value.val.i
  %27 = call i32 @dissect_dcerpc_uint32(ptr noundef %0, i32 noundef %18, ptr noundef %2, ptr noundef %22, ptr noundef %5, i32 noundef %26, ptr noundef nonnull %10) #11
  call void @llvm.lifetime.end.p0(i64 4, ptr nonnull %9)
  %28 = load i32, ptr %10, align 4
  call void (ptr, ptr, ...) @proto_item_append_text(ptr noundef %4, ptr noundef nonnull @.str.1561, i32 noundef %28) #11
  br label %29

29:                                               ; preds = %17, %13
  ret void
}